; Function Attrs: nounwind uwtable
define noalias ptr @png_create_read_struct(ptr noundef %0, ptr noundef %1, ptr noundef %2, ptr noundef %3) local_unnamed_addr #0 {
  %5 = tail call noalias ptr @png_create_png_struct(ptr noundef %0, ptr noundef %1, ptr noundef %2, ptr noundef %3, ptr noundef null, ptr noundef null, ptr noundef null) #11
  %.not.i = icmp eq ptr %5, null
  br i1 %.not.i, label %png_create_read_struct_2.exit, label %6

6:                                                ; preds = %4
  %7 = getelementptr inbounds i8, ptr %5, i64 300
  store i32 32768, ptr %7, align 4
  %8 = getelementptr inbounds i8, ptr %5, i64 1136
  store i32 8192, ptr %8, align 8
  %9 = getelementptr inbounds i8, ptr %5, i64 304
  %10 = load i32, ptr %9, align 8
  %11 = or i32 %10, 1048576
  store i32 %11, ptr %9, align 8
  tail call void @png_set_read_fn(ptr noundef nonnull %5, ptr noundef null, ptr noundef null) #11
  br label %png_create_read_struct_2.exit

png_create_read_struct_2.exit:                    ; preds = %4, %6
  ret ptr %5
}